target datalayout = "e-m:e-p270:32:32-p271:32:32-p272:64:64-i64:64-i128:128-f80:128-n8:16:32:64-S128"
target triple = "x86_64-pc-linux-gnu"

%struct.SDL_AudioStream = type { ptr, i32, ptr, ptr, ptr, ptr, %struct.SDL_AudioSpec, %struct.SDL_AudioSpec, ptr, ptr, float, float, ptr, %struct.SDL_AudioSpec, ptr, [8 x i32], i64, ptr, i64, i8, ptr, ptr, ptr, ptr, ptr }
%struct.SDL_AudioSpec = type { i32, i32, i32 }

@.str = private unnamed_addr constant [26 x i8] c"Parameter '%s' is invalid\00", align 1
@.str.1 = private unnamed_addr constant [7 x i8] c"stream\00", align 1
@.str.12 = private unnamed_addr constant [27 x i8] c"Frequency ratio is too low\00", align 1
@.str.13 = private unnamed_addr constant [28 x i8] c"Frequency ratio is too high\00", align 1

; Function Attrs: nounwind uwtable
define hidden zeroext i1 @SDL_SetAudioStreamFrequencyRatio_REAL(ptr noundef %0, float noundef %1) #0 {
  %3 = alloca i1, align 1
  %4 = alloca ptr, align 8
  %5 = alloca float, align 4
  %6 = alloca float, align 4
  %7 = alloca float, align 4
  %8 = alloca i32, align 4
  store ptr %0, ptr %4, align 8
  store float %1, ptr %5, align 4
  %9 = load ptr, ptr %4, align 8
  %10 = icmp ne ptr %9, null
  br i1 %10, label %13, label %11

11:                                               ; preds = %2
  %12 = call zeroext i1 (ptr, ...) @SDL_SetError_REAL(ptr noundef @.str, ptr noundef @.str.1)
  store i1 %12, ptr %3, align 1
  br label %35

13:                                               ; preds = %2
  call void @llvm.lifetime.start.p0(i64 4, ptr %6) #7
  store float 0x3F847AE140000000, ptr %6, align 4
  call void @llvm.lifetime.start.p0(i64 4, ptr %7) #7
  store float 1.000000e+02, ptr %7, align 4
  %14 = load float, ptr %5, align 4
  %15 = fcmp olt float %14, 0x3F847AE140000000
  br i1 %15, label %16, label %18

16:                                               ; preds = %13
  %17 = call zeroext i1 (ptr, ...) @SDL_SetError_REAL(ptr noundef @.str.12)
  store i1 %17, ptr %3, align 1
  store i32 1, ptr %8, align 4
  br label %34

18:                                               ; preds = %13
  %19 = load float, ptr %5, align 4
  %20 = fcmp ogt float %19, 1.000000e+02
  br i1 %20, label %21, label %23

21:                                               ; preds = %18
  %22 = call zeroext i1 (ptr, ...) @SDL_SetError_REAL(ptr noundef @.str.13)
  store i1 %22, ptr %3, align 1
  store i32 1, ptr %8, align 4
  br label %34

23:                                               ; preds = %18
  br label %24

24:                                               ; preds = %23
  %25 = load ptr, ptr %4, align 8
  %26 = getelementptr inbounds nuw %struct.SDL_AudioStream, ptr %25, i32 0, i32 0
  %27 = load ptr, ptr %26, align 8
  call void @SDL_LockMutex_REAL(ptr noundef %27)
  %28 = load float, ptr %5, align 4
  %29 = load ptr, ptr %4, align 8
  %30 = getelementptr inbounds nuw %struct.SDL_AudioStream, ptr %29, i32 0, i32 10
  store float %28, ptr %30, align 8
  %31 = load ptr, ptr %4, align 8
  %32 = getelementptr inbounds nuw %struct.SDL_AudioStream, ptr %31, i32 0, i32 0
  %33 = load ptr, ptr %32, align 8
  call void @SDL_UnlockMutex_REAL(ptr noundef %33)
  store i1 true, ptr %3, align 1
  store i32 1, ptr %8, align 4
  br label %34

34:                                               ; preds = %24, %21, %16
  call void @llvm.lifetime.end.p0(i64 4, ptr %7) #7
  call void @llvm.lifetime.end.p0(i64 4, ptr %6) #7
  br label %35

35:                                               ; preds = %34, %11
  %36 = load i1, ptr %3, align 1
  ret i1 %36
}