; Function Attrs: nounwind uwtable
define hidden zeroext i1 @SDL_SetAudioStreamFrequencyRatio_REAL(ptr noundef captures(address_is_null) %0, float noundef %1) local_unnamed_addr #2 {
  %.not = icmp eq ptr %0, null
  br i1 %.not, label %3, label %5

3:                                                ; preds = %2
  %4 = tail call zeroext i1 (ptr, ...) @SDL_SetError_REAL(ptr noundef nonnull @.str, ptr noundef nonnull @.str.1) #11
  br label %17

5:                                                ; preds = %2
  %6 = fcmp olt float %1, 0x3F847AE140000000
  br i1 %6, label %7, label %9

7:                                                ; preds = %5
  %8 = tail call zeroext i1 (ptr, ...) @SDL_SetError_REAL(ptr noundef nonnull @.str.12) #11
  br label %17

9:                                                ; preds = %5
  %10 = fcmp ogt float %1, 1.000000e+02
  br i1 %10, label %11, label %13

11:                                               ; preds = %9
  %12 = tail call zeroext i1 (ptr, ...) @SDL_SetError_REAL(ptr noundef nonnull @.str.13) #11
  br label %17

13:                                               ; preds = %9
  %14 = load ptr, ptr %0, align 8
  tail call void @SDL_LockMutex_REAL(ptr noundef %14) #11
  %15 = getelementptr inbounds nuw i8, ptr %0, i64 88
  store float %1, ptr %15, align 8
  %16 = load ptr, ptr %0, align 8
  tail call void @SDL_UnlockMutex_REAL(ptr noundef %16) #11
  br label %17

17:                                               ; preds = %7, %11, %13, %3
  %.0 = phi i1 [ %4, %3 ], [ %8, %7 ], [ %12, %11 ], [ true, %13 ]
  ret i1 %.0
}